; Function Attrs: mustprogress null_pointer_is_valid sspstrong uwtable
define void @_ZN18AddressEditorFrame46on_nameResolutionPreferencesToolButton_clickedEv(ptr noundef align 8 dereferenceable_or_null(72) %0) local_unnamed_addr #0 align 2 personality ptr @__gxx_personality_v0 {
  %2 = alloca %class.QString, align 8
  %3 = alloca %class.QString, align 8
  %4 = getelementptr inbounds nuw i8, ptr %0, i64 56
  %5 = load ptr, ptr %4, align 8
  %6 = getelementptr inbounds nuw i8, ptr %5, i64 32
  %7 = load ptr, ptr %6, align 8
  tail call void @_ZN9QComboBox5clearEv(ptr noundef align 8 dereferenceable_or_null(40) %7)
  %8 = load ptr, ptr %4, align 8
  %9 = getelementptr inbounds nuw i8, ptr %8, i64 56
  %10 = load ptr, ptr %9, align 8
  tail call void @_ZN9QLineEdit5clearEv(ptr noundef align 8 dereferenceable_or_null(40) %10)
  tail call void @_ZN14AccordionFrame12animatedHideEv(ptr noundef align 8 dereferenceable_or_null(72) %0)
  call void @llvm.lifetime.start.p0(i64 24, ptr nonnull %2) #19
  call void @_ZN7QString8fromUtf8E14QByteArrayView(ptr dead_on_unwind nonnull writable sret(%class.QString) align 8 %2, i64 7, ptr nonnull @.str.1)
  %11 = load ptr, ptr %2, align 8
  store ptr %11, ptr %3, align 8
  %12 = getelementptr inbounds nuw i8, ptr %3, i64 8
  %13 = getelementptr inbounds nuw i8, ptr %2, i64 8
  %14 = load ptr, ptr %13, align 8
  store ptr %14, ptr %12, align 8
  %15 = getelementptr inbounds nuw i8, ptr %3, i64 16
  %16 = getelementptr inbounds nuw i8, ptr %2, i64 16
  %17 = load i64, ptr %16, align 8
  store i64 %17, ptr %15, align 8
  call void @llvm.lifetime.end.p0(i64 24, ptr nonnull %2) #19
  invoke void @_ZN18AddressEditorFrame29showNameResolutionPreferencesE7QString(ptr noundef align 8 dereferenceable_or_null(72) %0, ptr noundef nonnull %3)
          to label %18 unwind label %23

18:                                               ; preds = %1
  %19 = load ptr, ptr %3, align 8
  %.not.i.i.i = icmp eq ptr %19, null
  br i1 %.not.i.i.i, label %_ZN7QStringD2Ev.exit, label %_ZN17QArrayDataPointerIDsE5derefEv.exit.i.i

_ZN17QArrayDataPointerIDsE5derefEv.exit.i.i:      ; preds = %18
  %20 = atomicrmw sub ptr %19, i32 1 seq_cst, align 4
  %.not.i.i = icmp eq i32 %20, 1
  br i1 %.not.i.i, label %21, label %_ZN7QStringD2Ev.exit

21:                                               ; preds = %_ZN17QArrayDataPointerIDsE5derefEv.exit.i.i
  %22 = load ptr, ptr %3, align 8
  call void @_ZN10QArrayData10deallocateEPS_xx(ptr noundef %22, i64 noundef 2, i64 noundef 8) #19
  br label %_ZN7QStringD2Ev.exit

_ZN7QStringD2Ev.exit:                             ; preds = %18, %_ZN17QArrayDataPointerIDsE5derefEv.exit.i.i, %21
  ret void

23:                                               ; preds = %1
  %24 = landingpad { ptr, i32 }
          cleanup
  %25 = load ptr, ptr %3, align 8
  %.not.i.i.i2 = icmp eq ptr %25, null
  br i1 %.not.i.i.i2, label %_ZN7QStringD2Ev.exit5, label %_ZN17QArrayDataPointerIDsE5derefEv.exit.i.i3

_ZN17QArrayDataPointerIDsE5derefEv.exit.i.i3:     ; preds = %23
  %26 = atomicrmw sub ptr %25, i32 1 seq_cst, align 4
  %.not.i.i4 = icmp eq i32 %26, 1
  br i1 %.not.i.i4, label %27, label %_ZN7QStringD2Ev.exit5

27:                                               ; preds = %_ZN17QArrayDataPointerIDsE5derefEv.exit.i.i3
  %28 = load ptr, ptr %3, align 8
  call void @_ZN10QArrayData10deallocateEPS_xx(ptr noundef %28, i64 noundef 2, i64 noundef 8) #19
  br label %_ZN7QStringD2Ev.exit5

_ZN7QStringD2Ev.exit5:                            ; preds = %23, %_ZN17QArrayDataPointerIDsE5derefEv.exit.i.i3, %27
  resume { ptr, i32 } %24
}